(dp1
Vdefault_run("/home/noza/neuro-boa/apps/spring/calibration/lksoma_erev/endeavour/chip4/syn2/synapse_endeavour_chip4_syn2_erev_lksoma_27_6_128.bif")
p2
I10
sVdefault_run("/home/noza/neuro-boa/apps/spring/calibration/lksoma_gset/endeavour/chip4/syn2/synapse_endeavour_chip4_syn2_g_lksoma_28_6_1056.bif")
p3
I21
s.