(dp1
Vdefault_run("/home/noza/neuro-boa/apps/spring/calibration/lksoma_gset/endeavour/chip9/syn0/synapse_endeavour_chip9_syn0_g_lksoma_29_6_1327.bif")
p2
I33
sVdefault_run("/home/noza/neuro-boa/apps/spring/calibration/lksoma_gset/endeavour/chip9/syn1/synapse_endeavour_chip9_syn1_g_lksoma_29_6_1417.bif")
p3
I35
s.