(dp1
Vimport matplotlib.pyplot as plt
p2
I76
sVdefault_run("/home/noza/neuro-boa/apps/spring/calibration/lksoma_gset/endeavour/chip4/syn0/synapse_endeavour_chip4_syn0_g_lksoma_27_6_1639.bif")
p3
I15
s.